; Function Attrs: mustprogress uwtable
define void @proj_grid_cache_clear(ptr noundef %0) local_unnamed_addr #3 {
  %2 = icmp eq ptr %0, null
  br i1 %2, label %3, label %5

3:                                                ; preds = %1
  %4 = tail call noundef ptr @_Z18pj_get_default_ctxv()
  br label %5

5:                                                ; preds = %3, %1
  %.0 = phi ptr [ %4, %3 ], [ %0, %1 ]
  tail call void @_ZN5osgeo4proj17NetworkChunkCache19clearDiskChunkCacheEP6pj_ctx(ptr noundef %.0)
  ret void
}